target datalayout = "e-m:e-p270:32:32-p271:32:32-p272:64:64-i64:64-i128:128-f80:128-n8:16:32:64-S128"
target triple = "x86_64-pc-linux-gnu"

%struct.expert_field = type { i32, i32 }
%struct.ext_value_string_t = type { i32, ptr, i32 }

@ansi_a_elem_1_strings = global ptr null, align 8
@.str.282 = private unnamed_addr constant [1 x i8] zeroinitializer, align 1
@ei_ansi_a_extraneous_data = internal global %struct.expert_field zeroinitializer, align 4
@ei_ansi_a_missing_mand_elem = internal global %struct.expert_field zeroinitializer, align 4
@.str.1753 = private unnamed_addr constant [71 x i8] c"Missing Mandatory element (0x%02x) %s%s, rest of dissection is suspect\00", align 1

; Function Attrs: null_pointer_is_valid sspstrong uwtable
define internal void @bsmap_ho_reqd_rej(ptr noundef %0, ptr noundef %1, ptr noundef %2, i32 noundef %3, i32 noundef %4, ptr noundef %5) #1 {
  %7 = alloca ptr, align 8
  %8 = alloca ptr, align 8
  %9 = alloca ptr, align 8
  %10 = alloca i32, align 4
  %11 = alloca i32, align 4
  %12 = alloca ptr, align 8
  %13 = alloca i32, align 4
  %14 = alloca i32, align 4
  %15 = alloca i32, align 4
  %16 = alloca i32, align 4
  store ptr %0, ptr %7, align 8
  store ptr %1, ptr %8, align 8
  store ptr %2, ptr %9, align 8
  store i32 %3, ptr %10, align 4
  store i32 %4, ptr %11, align 4
  store ptr %5, ptr %12, align 8
  call void @llvm.lifetime.start.p0(i64 4, ptr %13) #8
  call void @llvm.lifetime.start.p0(i64 4, ptr %14) #8
  call void @llvm.lifetime.start.p0(i64 4, ptr %15) #8
  %17 = load i32, ptr %10, align 4
  store i32 %17, ptr %13, align 4
  %18 = load i32, ptr %11, align 4
  store i32 %18, ptr %15, align 4
  %19 = load ptr, ptr %7, align 8
  %20 = load ptr, ptr %8, align 8
  %21 = load ptr, ptr %9, align 8
  %22 = load i32, ptr %13, align 4
  %23 = load i32, ptr %15, align 4
  %24 = load ptr, ptr %12, align 8
  %25 = call zeroext i16 @elem_tlv(ptr noundef %19, ptr noundef %20, ptr noundef %21, i32 noundef 15, i32 noundef %22, i32 noundef %23, ptr noundef @.str.282, ptr noundef %24)
  %26 = zext i16 %25 to i32
  store i32 %26, ptr %14, align 4
  %27 = icmp ugt i32 %26, 0
  br i1 %27, label %28, label %35

28:                                               ; preds = %6
  %29 = load i32, ptr %14, align 4
  %30 = load i32, ptr %13, align 4
  %31 = add i32 %30, %29
  store i32 %31, ptr %13, align 4
  %32 = load i32, ptr %14, align 4
  %33 = load i32, ptr %15, align 4
  %34 = sub i32 %33, %32
  store i32 %34, ptr %15, align 4
  br label %49

35:                                               ; preds = %6
  %36 = load ptr, ptr %9, align 8
  %37 = load ptr, ptr %8, align 8
  %38 = load ptr, ptr %7, align 8
  %39 = load i32, ptr %13, align 4
  %40 = load ptr, ptr @ansi_a_elem_1_strings, align 8
  %41 = getelementptr %struct.ext_value_string_t, ptr %40, i64 15
  %42 = getelementptr inbounds nuw %struct.ext_value_string_t, ptr %41, i32 0, i32 0
  %43 = load i32, ptr %42, align 8
  %44 = load ptr, ptr @ansi_a_elem_1_strings, align 8
  %45 = getelementptr %struct.ext_value_string_t, ptr %44, i64 15
  %46 = getelementptr inbounds nuw %struct.ext_value_string_t, ptr %45, i32 0, i32 1
  %47 = load ptr, ptr %46, align 8
  %48 = call ptr (ptr, ptr, ptr, ptr, i32, i32, ptr, ...) @proto_tree_add_expert_format(ptr noundef %36, ptr noundef %37, ptr noundef @ei_ansi_a_missing_mand_elem, ptr noundef %38, i32 noundef %39, i32 noundef 0, ptr noundef @.str.1753, i32 noundef %43, ptr noundef %47, ptr noundef @.str.282)
  br label %49

49:                                               ; preds = %35, %28
  %50 = load i32, ptr %15, align 4
  %51 = icmp ule i32 %50, 0
  br i1 %51, label %52, label %53

52:                                               ; preds = %49
  store i32 1, ptr %16, align 4
  br label %69

53:                                               ; preds = %49
  %54 = load i32, ptr %15, align 4
  %55 = icmp ugt i32 %54, 0
  br i1 %55, label %56, label %68

56:                                               ; preds = %53
  %57 = load ptr, ptr %9, align 8
  %58 = load ptr, ptr %8, align 8
  %59 = load ptr, ptr %7, align 8
  %60 = load i32, ptr %13, align 4
  %61 = load i32, ptr %15, align 4
  %62 = sub i32 %61, 0
  %63 = call ptr @proto_tree_add_expert(ptr noundef %57, ptr noundef %58, ptr noundef @ei_ansi_a_extraneous_data, ptr noundef %59, i32 noundef %60, i32 noundef %62)
  %64 = load i32, ptr %15, align 4
  %65 = sub i32 %64, 0
  %66 = load i32, ptr %13, align 4
  %67 = add i32 %66, %65
  store i32 %67, ptr %13, align 4
  br label %68

68:                                               ; preds = %56, %53
  store i32 0, ptr %16, align 4
  br label %69

69:                                               ; preds = %68, %52
  call void @llvm.lifetime.end.p0(i64 4, ptr %15) #8
  call void @llvm.lifetime.end.p0(i64 4, ptr %14) #8
  call void @llvm.lifetime.end.p0(i64 4, ptr %13) #8
  %70 = load i32, ptr %16, align 4
  switch i32 %70, label %72 [
    i32 0, label %71
    i32 1, label %71
  ]

71:                                               ; preds = %69, %69
  ret void

72:                                               ; preds = %69
  unreachable
}